target datalayout = "e-m:e-p270:32:32-p271:32:32-p272:64:64-i64:64-i128:128-f80:128-n8:16:32:64-S128"
target triple = "x86_64-pc-linux-gnu"

%class.expr_substitution = type <{ ptr, %class.obj_map, %class.scoped_ptr, %class.scoped_ptr.0, i8, [7 x i8] }>
%class.obj_map = type { %class.core_hashtable }
%class.core_hashtable = type <{ ptr, i32, i32, i32, [4 x i8] }>
%class.scoped_ptr = type { ptr }
%class.scoped_ptr.0 = type { ptr }
%class.obj_map.1 = type { %class.core_hashtable.2 }
%class.core_hashtable.2 = type <{ ptr, i32, i32, i32, [4 x i8] }>
%class.obj_map.6 = type { %class.core_hashtable.7 }
%class.core_hashtable.7 = type <{ ptr, i32, i32, i32, [4 x i8] }>

; Function Attrs: mustprogress nounwind uwtable
define linkonce_odr hidden noundef nonnull align 8 dereferenceable(24) ptr @_ZN10scoped_ptrI7obj_mapI4exprPN18dependency_managerIN11ast_manager22expr_dependency_configEE10dependencyEEEdeEv(ptr noundef nonnull align 8 dereferenceable(8) %0) #5 comdat align 2 {
  %2 = alloca ptr, align 8
  store ptr %0, ptr %2, align 8, !tbaa !16
  %3 = load ptr, ptr %2, align 8
  %4 = getelementptr inbounds nuw %class.scoped_ptr.0, ptr %3, i32 0, i32 0
  %5 = load ptr, ptr %4, align 8, !tbaa !18
  ret ptr %5
}

; Function Attrs: mustprogress nounwind uwtable
define linkonce_odr hidden noundef nonnull align 8 dereferenceable(24) ptr @_ZN10scoped_ptrI7obj_mapI4exprP3appEEdeEv(ptr noundef nonnull align 8 dereferenceable(8) %0) #5 comdat align 2 {
  %2 = alloca ptr, align 8
  store ptr %0, ptr %2, align 8, !tbaa !10
  %3 = load ptr, ptr %2, align 8
  %4 = getelementptr inbounds nuw %class.scoped_ptr, ptr %3, i32 0, i32 0
  %5 = load ptr, ptr %4, align 8, !tbaa !12
  ret ptr %5
}

; Function Attrs: mustprogress uwtable
define linkonce_odr hidden void @_Z22dec_ref_map_key_valuesI11ast_manager7obj_mapI4exprPS2_EEvRT_RT0_(ptr noundef nonnull align 8 dereferenceable(976) %0, ptr noundef nonnull align 8 dereferenceable(24) %1) #4 comdat {
  %3 = alloca ptr, align 8
  %4 = alloca ptr, align 8
  store ptr %0, ptr %3, align 8, !tbaa !20
  store ptr %1, ptr %4, align 8, !tbaa !22
  %5 = load ptr, ptr %3, align 8, !tbaa !20
  %6 = load ptr, ptr %3, align 8, !tbaa !20
  %7 = load ptr, ptr %4, align 8, !tbaa !22
  call void @_Z22dec_ref_map_key_valuesI11ast_managerS0_7obj_mapI4exprPS2_EEvRT_RT0_RT1_(ptr noundef nonnull align 8 dereferenceable(976) %5, ptr noundef nonnull align 8 dereferenceable(976) %6, ptr noundef nonnull align 8 dereferenceable(24) %7)
  ret void
}

; Function Attrs: mustprogress uwtable
define linkonce_odr hidden void @_ZN7obj_mapI4exprPN18dependency_managerIN11ast_manager22expr_dependency_configEE10dependencyEE8finalizeEv(ptr noundef nonnull align 8 dereferenceable(24) %0) #4 comdat align 2 {
  %2 = alloca ptr, align 8
  store ptr %0, ptr %2, align 8, !tbaa !14
  %3 = load ptr, ptr %2, align 8
  %4 = getelementptr inbounds nuw %class.obj_map.6, ptr %3, i32 0, i32 0
  call void @_ZN14core_hashtableIN7obj_mapI4exprPN18dependency_managerIN11ast_manager22expr_dependency_configEE10dependencyEE13obj_map_entryE8obj_hashINS8_8key_dataEE10default_eqISB_EE8finalizeEv(ptr noundef nonnull align 8 dereferenceable(20) %4)
  ret void
}

; Function Attrs: mustprogress nounwind uwtable
define linkonce_odr hidden noundef ptr @_ZNK10scoped_ptrI7obj_mapI4exprPN18dependency_managerIN11ast_manager22expr_dependency_configEE10dependencyEEEptEv(ptr noundef nonnull align 8 dereferenceable(8) %0) #5 comdat align 2 {
  %2 = alloca ptr, align 8
  store ptr %0, ptr %2, align 8, !tbaa !16
  %3 = load ptr, ptr %2, align 8
  %4 = getelementptr inbounds nuw %class.scoped_ptr.0, ptr %3, i32 0, i32 0
  %5 = load ptr, ptr %4, align 8, !tbaa !18
  ret ptr %5
}

; Function Attrs: mustprogress nounwind uwtable
define linkonce_odr hidden noundef zeroext i1 @_ZNK17expr_substitution18unsat_core_enabledEv(ptr noundef nonnull align 8 dereferenceable(49) %0) #5 comdat align 2 {
  %2 = alloca ptr, align 8
  store ptr %0, ptr %2, align 8, !tbaa !3
  %3 = load ptr, ptr %2, align 8
  %4 = getelementptr inbounds nuw %class.expr_substitution, ptr %3, i32 0, i32 4
  %5 = load i8, ptr %4, align 8
  %6 = and i8 %5, 1
  %7 = zext i8 %6 to i32
  %8 = icmp ne i32 %7, 0
  ret i1 %8
}

; Function Attrs: mustprogress uwtable
define linkonce_odr hidden void @_ZN7obj_mapI4exprP3appE8finalizeEv(ptr noundef nonnull align 8 dereferenceable(24) %0) #4 comdat align 2 {
  %2 = alloca ptr, align 8
  store ptr %0, ptr %2, align 8, !tbaa !8
  %3 = load ptr, ptr %2, align 8
  %4 = getelementptr inbounds nuw %class.obj_map.1, ptr %3, i32 0, i32 0
  call void @_ZN14core_hashtableIN7obj_mapI4exprP3appE13obj_map_entryE8obj_hashINS4_8key_dataEE10default_eqIS7_EE8finalizeEv(ptr noundef nonnull align 8 dereferenceable(20) %4)
  ret void
}

; Function Attrs: mustprogress nounwind uwtable
define linkonce_odr hidden noundef ptr @_ZNK10scoped_ptrI7obj_mapI4exprP3appEEptEv(ptr noundef nonnull align 8 dereferenceable(8) %0) #5 comdat align 2 {
  %2 = alloca ptr, align 8
  store ptr %0, ptr %2, align 8, !tbaa !10
  %3 = load ptr, ptr %2, align 8
  %4 = getelementptr inbounds nuw %class.scoped_ptr, ptr %3, i32 0, i32 0
  %5 = load ptr, ptr %4, align 8, !tbaa !12
  ret ptr %5
}

; Function Attrs: mustprogress nounwind uwtable
define linkonce_odr hidden noundef zeroext i1 @_ZNK17expr_substitution14proofs_enabledEv(ptr noundef nonnull align 8 dereferenceable(49) %0) #5 comdat align 2 {
  %2 = alloca ptr, align 8
  store ptr %0, ptr %2, align 8, !tbaa !3
  %3 = load ptr, ptr %2, align 8
  %4 = getelementptr inbounds nuw %class.expr_substitution, ptr %3, i32 0, i32 4
  %5 = load i8, ptr %4, align 8
  %6 = lshr i8 %5, 1
  %7 = and i8 %6, 1
  %8 = zext i8 %7 to i32
  %9 = icmp ne i32 %8, 0
  ret i1 %9
}

; Function Attrs: mustprogress uwtable
define linkonce_odr hidden void @_ZN7obj_mapI4exprPS0_E8finalizeEv(ptr noundef nonnull align 8 dereferenceable(24) %0) #4 comdat align 2 {
  %2 = alloca ptr, align 8
  store ptr %0, ptr %2, align 8, !tbaa !22
  %3 = load ptr, ptr %2, align 8
  %4 = getelementptr inbounds nuw %class.obj_map, ptr %3, i32 0, i32 0
  call void @_ZN14core_hashtableIN7obj_mapI4exprPS1_E13obj_map_entryE8obj_hashINS3_8key_dataEE10default_eqIS6_EE8finalizeEv(ptr noundef nonnull align 8 dereferenceable(20) %4)
  ret void
}

; Function Attrs: mustprogress uwtable
define hidden void @_ZN17expr_substitution5resetEv(ptr noundef nonnull align 8 dereferenceable(49) %0) #4 align 2 {
  %2 = alloca ptr, align 8
  store ptr %0, ptr %2, align 8, !tbaa !3
  %3 = load ptr, ptr %2, align 8
  %4 = getelementptr inbounds nuw %class.expr_substitution, ptr %3, i32 0, i32 0
  %5 = load ptr, ptr %4, align 8, !tbaa !95
  %6 = getelementptr inbounds nuw %class.expr_substitution, ptr %3, i32 0, i32 1
  call void @_Z22dec_ref_map_key_valuesI11ast_manager7obj_mapI4exprPS2_EEvRT_RT0_(ptr noundef nonnull align 8 dereferenceable(976) %5, ptr noundef nonnull align 8 dereferenceable(24) %6)
  %7 = call noundef zeroext i1 @_ZNK17expr_substitution14proofs_enabledEv(ptr noundef nonnull align 8 dereferenceable(49) %3)
  br i1 %7, label %8, label %13

8:                                                ; preds = %1
  %9 = getelementptr inbounds nuw %class.expr_substitution, ptr %3, i32 0, i32 0
  %10 = load ptr, ptr %9, align 8, !tbaa !95
  %11 = getelementptr inbounds nuw %class.expr_substitution, ptr %3, i32 0, i32 2
  %12 = call noundef nonnull align 8 dereferenceable(24) ptr @_ZN10scoped_ptrI7obj_mapI4exprP3appEEdeEv(ptr noundef nonnull align 8 dereferenceable(8) %11)
  call void @_Z18dec_ref_map_valuesI11ast_manager7obj_mapI4exprP3appEEvRT_RT0_(ptr noundef nonnull align 8 dereferenceable(976) %10, ptr noundef nonnull align 8 dereferenceable(24) %12)
  br label %13

13:                                               ; preds = %8, %1
  %14 = call noundef zeroext i1 @_ZNK17expr_substitution18unsat_core_enabledEv(ptr noundef nonnull align 8 dereferenceable(49) %3)
  br i1 %14, label %15, label %20

15:                                               ; preds = %13
  %16 = getelementptr inbounds nuw %class.expr_substitution, ptr %3, i32 0, i32 0
  %17 = load ptr, ptr %16, align 8, !tbaa !95
  %18 = getelementptr inbounds nuw %class.expr_substitution, ptr %3, i32 0, i32 3
  %19 = call noundef nonnull align 8 dereferenceable(24) ptr @_ZN10scoped_ptrI7obj_mapI4exprPN18dependency_managerIN11ast_manager22expr_dependency_configEE10dependencyEEEdeEv(ptr noundef nonnull align 8 dereferenceable(8) %18)
  call void @_Z18dec_ref_map_valuesI11ast_manager7obj_mapI4exprPN18dependency_managerINS0_22expr_dependency_configEE10dependencyEEEvRT_RT0_(ptr noundef nonnull align 8 dereferenceable(976) %17, ptr noundef nonnull align 8 dereferenceable(24) %19)
  br label %20

20:                                               ; preds = %15, %13
  ret void
}

; Function Attrs: mustprogress uwtable
define hidden void @_ZN17expr_substitution7cleanupEv(ptr noundef nonnull align 8 dereferenceable(49) %0) #4 align 2 {
  %2 = alloca ptr, align 8
  store ptr %0, ptr %2, align 8, !tbaa !3
  %3 = load ptr, ptr %2, align 8
  call void @_ZN17expr_substitution5resetEv(ptr noundef nonnull align 8 dereferenceable(49) %3)
  %4 = getelementptr inbounds nuw %class.expr_substitution, ptr %3, i32 0, i32 1
  call void @_ZN7obj_mapI4exprPS0_E8finalizeEv(ptr noundef nonnull align 8 dereferenceable(24) %4)
  %5 = call noundef zeroext i1 @_ZNK17expr_substitution14proofs_enabledEv(ptr noundef nonnull align 8 dereferenceable(49) %3)
  br i1 %5, label %6, label %9

6:                                                ; preds = %1
  %7 = getelementptr inbounds nuw %class.expr_substitution, ptr %3, i32 0, i32 2
  %8 = call noundef ptr @_ZNK10scoped_ptrI7obj_mapI4exprP3appEEptEv(ptr noundef nonnull align 8 dereferenceable(8) %7)
  call void @_ZN7obj_mapI4exprP3appE8finalizeEv(ptr noundef nonnull align 8 dereferenceable(24) %8)
  br label %9

9:                                                ; preds = %6, %1
  %10 = call noundef zeroext i1 @_ZNK17expr_substitution18unsat_core_enabledEv(ptr noundef nonnull align 8 dereferenceable(49) %3)
  br i1 %10, label %11, label %14

11:                                               ; preds = %9
  %12 = getelementptr inbounds nuw %class.expr_substitution, ptr %3, i32 0, i32 3
  %13 = call noundef ptr @_ZNK10scoped_ptrI7obj_mapI4exprPN18dependency_managerIN11ast_manager22expr_dependency_configEE10dependencyEEEptEv(ptr noundef nonnull align 8 dereferenceable(8) %12)
  call void @_ZN7obj_mapI4exprPN18dependency_managerIN11ast_manager22expr_dependency_configEE10dependencyEE8finalizeEv(ptr noundef nonnull align 8 dereferenceable(24) %13)
  br label %14

14:                                               ; preds = %11, %9
  ret void
}